target datalayout = "e-m:e-p270:32:32-p271:32:32-p272:64:64-i64:64-i128:128-f80:128-n8:16:32:64-S128"
target triple = "x86_64-pc-linux-gnu"

%struct.jpeg_compress_struct = type { ptr, ptr, ptr, ptr, i32, i32, ptr, i32, i32, i32, i32, double, i32, i32, i32, ptr, [4 x ptr], [4 x ptr], [4 x ptr], [16 x i8], [16 x i8], [16 x i8], i32, ptr, i32, i32, i32, i32, i32, i32, i32, i32, i32, i8, i8, i8, i16, i16, i32, i32, i32, i32, i32, i32, i32, [4 x ptr], i32, i32, i32, [10 x i32], i32, i32, i32, i32, ptr, ptr, ptr, ptr, ptr, ptr, ptr, ptr, ptr, ptr, i32 }
%struct.jpeg_error_mgr = type { ptr, ptr, ptr, ptr, ptr, i32, %union.anon, i32, i64, ptr, i32, ptr, i32, i32 }
%union.anon = type { [8 x i32], [48 x i8] }
%struct.jpeg_memory_mgr = type { ptr, ptr, ptr, ptr, ptr, ptr, ptr, ptr, ptr, ptr, ptr, i64, i64 }
%struct.my_diff_controller = type { %struct.jpeg_c_coef_controller, i32, i32, i32, i32, [10 x ptr], [10 x ptr], [10 x ptr], [10 x ptr] }
%struct.jpeg_c_coef_controller = type { ptr, ptr, ptr, ptr }
%struct.jpeg_component_info = type { i32, i32, i32, i32, i32, i32, i32, i32, i32, i32, i32, i32, i32, i32, i32, i32, i32, i32, i32, ptr, ptr }

; Function Attrs: nounwind uwtable
define void @jinit_c_diff_controller(ptr noundef %0, i32 noundef %1) #0 {
  %3 = alloca ptr, align 8
  %4 = alloca i32, align 4
  %5 = alloca ptr, align 8
  %6 = alloca i32, align 4
  %7 = alloca i32, align 4
  %8 = alloca ptr, align 8
  store ptr %0, ptr %3, align 8, !tbaa !3
  store i32 %1, ptr %4, align 4, !tbaa !8
  call void @llvm.lifetime.start.p0(i64 8, ptr %5) #5
  call void @llvm.lifetime.start.p0(i64 4, ptr %6) #5
  call void @llvm.lifetime.start.p0(i64 4, ptr %7) #5
  call void @llvm.lifetime.start.p0(i64 8, ptr %8) #5
  %9 = load ptr, ptr %3, align 8, !tbaa !3
  %10 = getelementptr inbounds nuw %struct.jpeg_compress_struct, ptr %9, i32 0, i32 12
  %11 = load i32, ptr %10, align 8, !tbaa !10
  %12 = icmp sgt i32 %11, 8
  br i1 %12, label %18, label %13

13:                                               ; preds = %2
  %14 = load ptr, ptr %3, align 8, !tbaa !3
  %15 = getelementptr inbounds nuw %struct.jpeg_compress_struct, ptr %14, i32 0, i32 12
  %16 = load i32, ptr %15, align 8, !tbaa !10
  %17 = icmp slt i32 %16, 2
  br i1 %17, label %18, label %37

18:                                               ; preds = %13, %2
  %19 = load ptr, ptr %3, align 8, !tbaa !3
  %20 = getelementptr inbounds nuw %struct.jpeg_compress_struct, ptr %19, i32 0, i32 0
  %21 = load ptr, ptr %20, align 8, !tbaa !27
  %22 = getelementptr inbounds nuw %struct.jpeg_error_mgr, ptr %21, i32 0, i32 5
  store i32 15, ptr %22, align 8, !tbaa !28
  %23 = load ptr, ptr %3, align 8, !tbaa !3
  %24 = getelementptr inbounds nuw %struct.jpeg_compress_struct, ptr %23, i32 0, i32 12
  %25 = load i32, ptr %24, align 8, !tbaa !10
  %26 = load ptr, ptr %3, align 8, !tbaa !3
  %27 = getelementptr inbounds nuw %struct.jpeg_compress_struct, ptr %26, i32 0, i32 0
  %28 = load ptr, ptr %27, align 8, !tbaa !27
  %29 = getelementptr inbounds nuw %struct.jpeg_error_mgr, ptr %28, i32 0, i32 6
  %30 = getelementptr inbounds [8 x i32], ptr %29, i64 0, i64 0
  store i32 %25, ptr %30, align 4, !tbaa !32
  %31 = load ptr, ptr %3, align 8, !tbaa !3
  %32 = getelementptr inbounds nuw %struct.jpeg_compress_struct, ptr %31, i32 0, i32 0
  %33 = load ptr, ptr %32, align 8, !tbaa !27
  %34 = getelementptr inbounds nuw %struct.jpeg_error_mgr, ptr %33, i32 0, i32 0
  %35 = load ptr, ptr %34, align 8, !tbaa !33
  %36 = load ptr, ptr %3, align 8, !tbaa !3
  call void %35(ptr noundef %36)
  br label %37

37:                                               ; preds = %18, %13
  %38 = load ptr, ptr %3, align 8, !tbaa !3
  %39 = getelementptr inbounds nuw %struct.jpeg_compress_struct, ptr %38, i32 0, i32 1
  %40 = load ptr, ptr %39, align 8, !tbaa !34
  %41 = getelementptr inbounds nuw %struct.jpeg_memory_mgr, ptr %40, i32 0, i32 0
  %42 = load ptr, ptr %41, align 8, !tbaa !35
  %43 = load ptr, ptr %3, align 8, !tbaa !3
  %44 = call ptr %42(ptr noundef %43, i32 noundef 1, i64 noundef 368)
  store ptr %44, ptr %5, align 8, !tbaa !37
  %45 = load ptr, ptr %5, align 8, !tbaa !37
  %46 = load ptr, ptr %3, align 8, !tbaa !3
  %47 = getelementptr inbounds nuw %struct.jpeg_compress_struct, ptr %46, i32 0, i32 57
  store ptr %45, ptr %47, align 8, !tbaa !38
  %48 = load ptr, ptr %5, align 8, !tbaa !37
  %49 = getelementptr inbounds nuw %struct.my_diff_controller, ptr %48, i32 0, i32 0
  %50 = getelementptr inbounds nuw %struct.jpeg_c_coef_controller, ptr %49, i32 0, i32 0
  store ptr @start_pass_diff, ptr %50, align 8, !tbaa !39
  store i32 0, ptr %6, align 4, !tbaa !8
  %51 = load ptr, ptr %3, align 8, !tbaa !3
  %52 = getelementptr inbounds nuw %struct.jpeg_compress_struct, ptr %51, i32 0, i32 15
  %53 = load ptr, ptr %52, align 8, !tbaa !42
  store ptr %53, ptr %8, align 8, !tbaa !37
  br label %54

54:                                               ; preds = %107, %37
  %55 = load i32, ptr %6, align 4, !tbaa !8
  %56 = load ptr, ptr %3, align 8, !tbaa !3
  %57 = getelementptr inbounds nuw %struct.jpeg_compress_struct, ptr %56, i32 0, i32 13
  %58 = load i32, ptr %57, align 4, !tbaa !43
  %59 = icmp slt i32 %55, %58
  br i1 %59, label %60, label %112

60:                                               ; preds = %54
  %61 = load ptr, ptr %3, align 8, !tbaa !3
  %62 = getelementptr inbounds nuw %struct.jpeg_compress_struct, ptr %61, i32 0, i32 1
  %63 = load ptr, ptr %62, align 8, !tbaa !34
  %64 = getelementptr inbounds nuw %struct.jpeg_memory_mgr, ptr %63, i32 0, i32 2
  %65 = load ptr, ptr %64, align 8, !tbaa !44
  %66 = load ptr, ptr %3, align 8, !tbaa !3
  %67 = load ptr, ptr %8, align 8, !tbaa !37
  %68 = getelementptr inbounds nuw %struct.jpeg_component_info, ptr %67, i32 0, i32 7
  %69 = load i32, ptr %68, align 4, !tbaa !45
  %70 = zext i32 %69 to i64
  %71 = load ptr, ptr %8, align 8, !tbaa !37
  %72 = getelementptr inbounds nuw %struct.jpeg_component_info, ptr %71, i32 0, i32 2
  %73 = load i32, ptr %72, align 8, !tbaa !47
  %74 = sext i32 %73 to i64
  %75 = call i64 @jround_up(i64 noundef %70, i64 noundef %74)
  %76 = trunc i64 %75 to i32
  %77 = call ptr %65(ptr noundef %66, i32 noundef 1, i32 noundef %76, i32 noundef 1)
  %78 = load ptr, ptr %77, align 8, !tbaa !48
  %79 = load ptr, ptr %5, align 8, !tbaa !37
  %80 = getelementptr inbounds nuw %struct.my_diff_controller, ptr %79, i32 0, i32 5
  %81 = load i32, ptr %6, align 4, !tbaa !8
  %82 = sext i32 %81 to i64
  %83 = getelementptr inbounds [10 x ptr], ptr %80, i64 0, i64 %82
  store ptr %78, ptr %83, align 8, !tbaa !48
  %84 = load ptr, ptr %3, align 8, !tbaa !3
  %85 = getelementptr inbounds nuw %struct.jpeg_compress_struct, ptr %84, i32 0, i32 1
  %86 = load ptr, ptr %85, align 8, !tbaa !34
  %87 = getelementptr inbounds nuw %struct.jpeg_memory_mgr, ptr %86, i32 0, i32 2
  %88 = load ptr, ptr %87, align 8, !tbaa !44
  %89 = load ptr, ptr %3, align 8, !tbaa !3
  %90 = load ptr, ptr %8, align 8, !tbaa !37
  %91 = getelementptr inbounds nuw %struct.jpeg_component_info, ptr %90, i32 0, i32 7
  %92 = load i32, ptr %91, align 4, !tbaa !45
  %93 = zext i32 %92 to i64
  %94 = load ptr, ptr %8, align 8, !tbaa !37
  %95 = getelementptr inbounds nuw %struct.jpeg_component_info, ptr %94, i32 0, i32 2
  %96 = load i32, ptr %95, align 8, !tbaa !47
  %97 = sext i32 %96 to i64
  %98 = call i64 @jround_up(i64 noundef %93, i64 noundef %97)
  %99 = trunc i64 %98 to i32
  %100 = call ptr %88(ptr noundef %89, i32 noundef 1, i32 noundef %99, i32 noundef 1)
  %101 = load ptr, ptr %100, align 8, !tbaa !48
  %102 = load ptr, ptr %5, align 8, !tbaa !37
  %103 = getelementptr inbounds nuw %struct.my_diff_controller, ptr %102, i32 0, i32 6
  %104 = load i32, ptr %6, align 4, !tbaa !8
  %105 = sext i32 %104 to i64
  %106 = getelementptr inbounds [10 x ptr], ptr %103, i64 0, i64 %105
  store ptr %101, ptr %106, align 8, !tbaa !48
  br label %107

107:                                              ; preds = %60
  %108 = load i32, ptr %6, align 4, !tbaa !8
  %109 = add nsw i32 %108, 1
  store i32 %109, ptr %6, align 4, !tbaa !8
  %110 = load ptr, ptr %8, align 8, !tbaa !37
  %111 = getelementptr inbounds nuw %struct.jpeg_component_info, ptr %110, i32 1
  store ptr %111, ptr %8, align 8, !tbaa !37
  br label %54, !llvm.loop !50

112:                                              ; preds = %54
  store i32 0, ptr %6, align 4, !tbaa !8
  %113 = load ptr, ptr %3, align 8, !tbaa !3
  %114 = getelementptr inbounds nuw %struct.jpeg_compress_struct, ptr %113, i32 0, i32 15
  %115 = load ptr, ptr %114, align 8, !tbaa !42
  store ptr %115, ptr %8, align 8, !tbaa !37
  br label %116

116:                                              ; preds = %183, %112
  %117 = load i32, ptr %6, align 4, !tbaa !8
  %118 = load ptr, ptr %3, align 8, !tbaa !3
  %119 = getelementptr inbounds nuw %struct.jpeg_compress_struct, ptr %118, i32 0, i32 13
  %120 = load i32, ptr %119, align 4, !tbaa !43
  %121 = icmp slt i32 %117, %120
  br i1 %121, label %122, label %188

122:                                              ; preds = %116
  %123 = load ptr, ptr %3, align 8, !tbaa !3
  %124 = getelementptr inbounds nuw %struct.jpeg_compress_struct, ptr %123, i32 0, i32 1
  %125 = load ptr, ptr %124, align 8, !tbaa !34
  %126 = getelementptr inbounds nuw %struct.jpeg_memory_mgr, ptr %125, i32 0, i32 2
  %127 = load ptr, ptr %126, align 8, !tbaa !44
  %128 = load ptr, ptr %3, align 8, !tbaa !3
  %129 = load ptr, ptr %8, align 8, !tbaa !37
  %130 = getelementptr inbounds nuw %struct.jpeg_component_info, ptr %129, i32 0, i32 7
  %131 = load i32, ptr %130, align 4, !tbaa !45
  %132 = zext i32 %131 to i64
  %133 = load ptr, ptr %8, align 8, !tbaa !37
  %134 = getelementptr inbounds nuw %struct.jpeg_component_info, ptr %133, i32 0, i32 2
  %135 = load i32, ptr %134, align 8, !tbaa !47
  %136 = sext i32 %135 to i64
  %137 = call i64 @jround_up(i64 noundef %132, i64 noundef %136)
  %138 = trunc i64 %137 to i32
  %139 = zext i32 %138 to i64
  %140 = mul i64 %139, 4
  %141 = udiv i64 %140, 1
  %142 = trunc i64 %141 to i32
  %143 = load ptr, ptr %8, align 8, !tbaa !37
  %144 = getelementptr inbounds nuw %struct.jpeg_component_info, ptr %143, i32 0, i32 3
  %145 = load i32, ptr %144, align 4, !tbaa !52
  %146 = call ptr %127(ptr noundef %128, i32 noundef 1, i32 noundef %142, i32 noundef %145)
  %147 = load ptr, ptr %5, align 8, !tbaa !37
  %148 = getelementptr inbounds nuw %struct.my_diff_controller, ptr %147, i32 0, i32 7
  %149 = load i32, ptr %6, align 4, !tbaa !8
  %150 = sext i32 %149 to i64
  %151 = getelementptr inbounds [10 x ptr], ptr %148, i64 0, i64 %150
  store ptr %146, ptr %151, align 8, !tbaa !53
  store i32 0, ptr %7, align 4, !tbaa !8
  br label %152

152:                                              ; preds = %179, %122
  %153 = load i32, ptr %7, align 4, !tbaa !8
  %154 = load ptr, ptr %8, align 8, !tbaa !37
  %155 = getelementptr inbounds nuw %struct.jpeg_component_info, ptr %154, i32 0, i32 3
  %156 = load i32, ptr %155, align 4, !tbaa !52
  %157 = icmp slt i32 %153, %156
  br i1 %157, label %158, label %182

158:                                              ; preds = %152
  %159 = load ptr, ptr %5, align 8, !tbaa !37
  %160 = getelementptr inbounds nuw %struct.my_diff_controller, ptr %159, i32 0, i32 7
  %161 = load i32, ptr %6, align 4, !tbaa !8
  %162 = sext i32 %161 to i64
  %163 = getelementptr inbounds [10 x ptr], ptr %160, i64 0, i64 %162
  %164 = load ptr, ptr %163, align 8, !tbaa !53
  %165 = load i32, ptr %7, align 4, !tbaa !8
  %166 = sext i32 %165 to i64
  %167 = getelementptr inbounds ptr, ptr %164, i64 %166
  %168 = load ptr, ptr %167, align 8, !tbaa !55
  %169 = load ptr, ptr %8, align 8, !tbaa !37
  %170 = getelementptr inbounds nuw %struct.jpeg_component_info, ptr %169, i32 0, i32 7
  %171 = load i32, ptr %170, align 4, !tbaa !45
  %172 = zext i32 %171 to i64
  %173 = load ptr, ptr %8, align 8, !tbaa !37
  %174 = getelementptr inbounds nuw %struct.jpeg_component_info, ptr %173, i32 0, i32 2
  %175 = load i32, ptr %174, align 8, !tbaa !47
  %176 = sext i32 %175 to i64
  %177 = call i64 @jround_up(i64 noundef %172, i64 noundef %176)
  %178 = mul i64 %177, 4
  call void @llvm.memset.p0.i64(ptr align 4 %168, i8 0, i64 %178, i1 false)
  br label %179

179:                                              ; preds = %158
  %180 = load i32, ptr %7, align 4, !tbaa !8
  %181 = add nsw i32 %180, 1
  store i32 %181, ptr %7, align 4, !tbaa !8
  br label %152, !llvm.loop !57

182:                                              ; preds = %152
  br label %183

183:                                              ; preds = %182
  %184 = load i32, ptr %6, align 4, !tbaa !8
  %185 = add nsw i32 %184, 1
  store i32 %185, ptr %6, align 4, !tbaa !8
  %186 = load ptr, ptr %8, align 8, !tbaa !37
  %187 = getelementptr inbounds nuw %struct.jpeg_component_info, ptr %186, i32 1
  store ptr %187, ptr %8, align 8, !tbaa !37
  br label %116, !llvm.loop !58

188:                                              ; preds = %116
  %189 = load i32, ptr %4, align 4, !tbaa !8
  %190 = icmp ne i32 %189, 0
  br i1 %190, label %191, label %243

191:                                              ; preds = %188
  store i32 0, ptr %6, align 4, !tbaa !8
  %192 = load ptr, ptr %3, align 8, !tbaa !3
  %193 = getelementptr inbounds nuw %struct.jpeg_compress_struct, ptr %192, i32 0, i32 15
  %194 = load ptr, ptr %193, align 8, !tbaa !42
  store ptr %194, ptr %8, align 8, !tbaa !37
  br label %195

195:                                              ; preds = %237, %191
  %196 = load i32, ptr %6, align 4, !tbaa !8
  %197 = load ptr, ptr %3, align 8, !tbaa !3
  %198 = getelementptr inbounds nuw %struct.jpeg_compress_struct, ptr %197, i32 0, i32 13
  %199 = load i32, ptr %198, align 4, !tbaa !43
  %200 = icmp slt i32 %196, %199
  br i1 %200, label %201, label %242

201:                                              ; preds = %195
  %202 = load ptr, ptr %3, align 8, !tbaa !3
  %203 = getelementptr inbounds nuw %struct.jpeg_compress_struct, ptr %202, i32 0, i32 1
  %204 = load ptr, ptr %203, align 8, !tbaa !34
  %205 = getelementptr inbounds nuw %struct.jpeg_memory_mgr, ptr %204, i32 0, i32 4
  %206 = load ptr, ptr %205, align 8, !tbaa !59
  %207 = load ptr, ptr %3, align 8, !tbaa !3
  %208 = load ptr, ptr %8, align 8, !tbaa !37
  %209 = getelementptr inbounds nuw %struct.jpeg_component_info, ptr %208, i32 0, i32 7
  %210 = load i32, ptr %209, align 4, !tbaa !45
  %211 = zext i32 %210 to i64
  %212 = load ptr, ptr %8, align 8, !tbaa !37
  %213 = getelementptr inbounds nuw %struct.jpeg_component_info, ptr %212, i32 0, i32 2
  %214 = load i32, ptr %213, align 8, !tbaa !47
  %215 = sext i32 %214 to i64
  %216 = call i64 @jround_up(i64 noundef %211, i64 noundef %215)
  %217 = trunc i64 %216 to i32
  %218 = load ptr, ptr %8, align 8, !tbaa !37
  %219 = getelementptr inbounds nuw %struct.jpeg_component_info, ptr %218, i32 0, i32 8
  %220 = load i32, ptr %219, align 8, !tbaa !60
  %221 = zext i32 %220 to i64
  %222 = load ptr, ptr %8, align 8, !tbaa !37
  %223 = getelementptr inbounds nuw %struct.jpeg_component_info, ptr %222, i32 0, i32 3
  %224 = load i32, ptr %223, align 4, !tbaa !52
  %225 = sext i32 %224 to i64
  %226 = call i64 @jround_up(i64 noundef %221, i64 noundef %225)
  %227 = trunc i64 %226 to i32
  %228 = load ptr, ptr %8, align 8, !tbaa !37
  %229 = getelementptr inbounds nuw %struct.jpeg_component_info, ptr %228, i32 0, i32 3
  %230 = load i32, ptr %229, align 4, !tbaa !52
  %231 = call ptr %206(ptr noundef %207, i32 noundef 1, i32 noundef 0, i32 noundef %217, i32 noundef %227, i32 noundef %230)
  %232 = load ptr, ptr %5, align 8, !tbaa !37
  %233 = getelementptr inbounds nuw %struct.my_diff_controller, ptr %232, i32 0, i32 8
  %234 = load i32, ptr %6, align 4, !tbaa !8
  %235 = sext i32 %234 to i64
  %236 = getelementptr inbounds [10 x ptr], ptr %233, i64 0, i64 %235
  store ptr %231, ptr %236, align 8, !tbaa !61
  br label %237

237:                                              ; preds = %201
  %238 = load i32, ptr %6, align 4, !tbaa !8
  %239 = add nsw i32 %238, 1
  store i32 %239, ptr %6, align 4, !tbaa !8
  %240 = load ptr, ptr %8, align 8, !tbaa !37
  %241 = getelementptr inbounds nuw %struct.jpeg_component_info, ptr %240, i32 1
  store ptr %241, ptr %8, align 8, !tbaa !37
  br label %195, !llvm.loop !63

242:                                              ; preds = %195
  br label %247

243:                                              ; preds = %188
  %244 = load ptr, ptr %5, align 8, !tbaa !37
  %245 = getelementptr inbounds nuw %struct.my_diff_controller, ptr %244, i32 0, i32 8
  %246 = getelementptr inbounds [10 x ptr], ptr %245, i64 0, i64 0
  store ptr null, ptr %246, align 8, !tbaa !61
  br label %247

247:                                              ; preds = %243, %242
  call void @llvm.lifetime.end.p0(i64 8, ptr %8) #5
  call void @llvm.lifetime.end.p0(i64 4, ptr %7) #5
  call void @llvm.lifetime.end.p0(i64 4, ptr %6) #5
  call void @llvm.lifetime.end.p0(i64 8, ptr %5) #5
  ret void
}