; Function Attrs: nounwind uwtable
define void @jinit_c_diff_controller(ptr noundef %0, i32 noundef %1) local_unnamed_addr #0 {
  %3 = getelementptr inbounds nuw i8, ptr %0, i64 72
  %4 = load i32, ptr %3, align 8, !tbaa !3
  %5 = add i32 %4, -9
  %or.cond = icmp ult i32 %5, -7
  br i1 %or.cond, label %6, label %12

6:                                                ; preds = %2
  %7 = load ptr, ptr %0, align 8, !tbaa !24
  %8 = getelementptr inbounds nuw i8, ptr %7, i64 40
  store i32 15, ptr %8, align 8, !tbaa !25
  %9 = getelementptr inbounds nuw i8, ptr %7, i64 44
  store i32 %4, ptr %9, align 4, !tbaa !29
  %10 = load ptr, ptr %0, align 8, !tbaa !24
  %11 = load ptr, ptr %10, align 8, !tbaa !30
  tail call void %11(ptr noundef nonnull %0) #5
  br label %12

12:                                               ; preds = %2, %6
  %13 = getelementptr inbounds nuw i8, ptr %0, i64 8
  %14 = load ptr, ptr %13, align 8, !tbaa !31
  %15 = load ptr, ptr %14, align 8, !tbaa !32
  %16 = tail call ptr %15(ptr noundef nonnull %0, i32 noundef 1, i64 noundef 368) #5
  %17 = getelementptr inbounds nuw i8, ptr %0, i64 456
  store ptr %16, ptr %17, align 8, !tbaa !34
  store ptr @start_pass_diff, ptr %16, align 8, !tbaa !35
  %18 = getelementptr inbounds nuw i8, ptr %0, i64 88
  %19 = getelementptr inbounds nuw i8, ptr %0, i64 76
  %20 = load i32, ptr %19, align 4, !tbaa !38
  %21 = icmp sgt i32 %20, 0
  br i1 %21, label %.lr.ph, label %._crit_edge79

.lr.ph:                                           ; preds = %12
  %22 = load ptr, ptr %18, align 8, !tbaa !39
  %23 = getelementptr inbounds nuw i8, ptr %16, i64 48
  %24 = getelementptr inbounds nuw i8, ptr %16, i64 128
  br label %25

25:                                               ; preds = %.lr.ph, %25
  %indvars.iv = phi i64 [ 0, %.lr.ph ], [ %indvars.iv.next, %25 ]
  %.070 = phi ptr [ %22, %.lr.ph ], [ %52, %25 ]
  %26 = load ptr, ptr %13, align 8, !tbaa !31
  %27 = getelementptr inbounds nuw i8, ptr %26, i64 16
  %28 = load ptr, ptr %27, align 8, !tbaa !40
  %29 = getelementptr inbounds nuw i8, ptr %.070, i64 28
  %30 = load i32, ptr %29, align 4, !tbaa !41
  %31 = zext i32 %30 to i64
  %32 = getelementptr inbounds nuw i8, ptr %.070, i64 8
  %33 = load i32, ptr %32, align 8, !tbaa !43
  %34 = sext i32 %33 to i64
  %35 = tail call i64 @jround_up(i64 noundef %31, i64 noundef %34) #5
  %36 = trunc i64 %35 to i32
  %37 = tail call ptr %28(ptr noundef nonnull %0, i32 noundef 1, i32 noundef %36, i32 noundef 1) #5
  %38 = load ptr, ptr %37, align 8, !tbaa !44
  %39 = getelementptr inbounds nuw [10 x ptr], ptr %23, i64 0, i64 %indvars.iv
  store ptr %38, ptr %39, align 8, !tbaa !44
  %40 = load ptr, ptr %13, align 8, !tbaa !31
  %41 = getelementptr inbounds nuw i8, ptr %40, i64 16
  %42 = load ptr, ptr %41, align 8, !tbaa !40
  %43 = load i32, ptr %29, align 4, !tbaa !41
  %44 = zext i32 %43 to i64
  %45 = load i32, ptr %32, align 8, !tbaa !43
  %46 = sext i32 %45 to i64
  %47 = tail call i64 @jround_up(i64 noundef %44, i64 noundef %46) #5
  %48 = trunc i64 %47 to i32
  %49 = tail call ptr %42(ptr noundef nonnull %0, i32 noundef 1, i32 noundef %48, i32 noundef 1) #5
  %50 = load ptr, ptr %49, align 8, !tbaa !44
  %51 = getelementptr inbounds nuw [10 x ptr], ptr %24, i64 0, i64 %indvars.iv
  store ptr %50, ptr %51, align 8, !tbaa !44
  %indvars.iv.next = add nuw nsw i64 %indvars.iv, 1
  %52 = getelementptr inbounds nuw i8, ptr %.070, i64 96
  %53 = load i32, ptr %19, align 4, !tbaa !38
  %54 = sext i32 %53 to i64
  %55 = icmp slt i64 %indvars.iv.next, %54
  br i1 %55, label %25, label %._crit_edge, !llvm.loop !46

._crit_edge:                                      ; preds = %25
  %56 = icmp sgt i32 %53, 0
  br i1 %56, label %.lr.ph78, label %._crit_edge79

.lr.ph78:                                         ; preds = %._crit_edge
  %57 = load ptr, ptr %18, align 8, !tbaa !39
  %58 = getelementptr inbounds nuw i8, ptr %16, i64 208
  br label %59

59:                                               ; preds = %.lr.ph78, %._crit_edge74
  %indvars.iv88 = phi i64 [ 0, %.lr.ph78 ], [ %indvars.iv.next89, %._crit_edge74 ]
  %.176 = phi ptr [ %57, %.lr.ph78 ], [ %89, %._crit_edge74 ]
  %60 = load ptr, ptr %13, align 8, !tbaa !31
  %61 = getelementptr inbounds nuw i8, ptr %60, i64 16
  %62 = load ptr, ptr %61, align 8, !tbaa !40
  %63 = getelementptr inbounds nuw i8, ptr %.176, i64 28
  %64 = load i32, ptr %63, align 4, !tbaa !41
  %65 = zext i32 %64 to i64
  %66 = getelementptr inbounds nuw i8, ptr %.176, i64 8
  %67 = load i32, ptr %66, align 8, !tbaa !43
  %68 = sext i32 %67 to i64
  %69 = tail call i64 @jround_up(i64 noundef %65, i64 noundef %68) #5
  %.tr = trunc i64 %69 to i32
  %70 = shl i32 %.tr, 2
  %71 = getelementptr inbounds nuw i8, ptr %.176, i64 12
  %72 = load i32, ptr %71, align 4, !tbaa !48
  %73 = tail call ptr %62(ptr noundef nonnull %0, i32 noundef 1, i32 noundef %70, i32 noundef %72) #5
  %74 = getelementptr inbounds nuw [10 x ptr], ptr %58, i64 0, i64 %indvars.iv88
  store ptr %73, ptr %74, align 8, !tbaa !49
  %75 = load i32, ptr %71, align 4, !tbaa !48
  %76 = icmp sgt i32 %75, 0
  br i1 %76, label %.lr.ph73, label %._crit_edge74

.lr.ph73:                                         ; preds = %59, %.lr.ph73
  %indvars.iv85 = phi i64 [ %indvars.iv.next86, %.lr.ph73 ], [ 0, %59 ]
  %77 = load ptr, ptr %74, align 8, !tbaa !49
  %78 = getelementptr inbounds nuw ptr, ptr %77, i64 %indvars.iv85
  %79 = load ptr, ptr %78, align 8, !tbaa !51
  %80 = load i32, ptr %63, align 4, !tbaa !41
  %81 = zext i32 %80 to i64
  %82 = load i32, ptr %66, align 8, !tbaa !43
  %83 = sext i32 %82 to i64
  %84 = tail call i64 @jround_up(i64 noundef %81, i64 noundef %83) #5
  %85 = shl i64 %84, 2
  tail call void @llvm.memset.p0.i64(ptr align 4 %79, i8 0, i64 %85, i1 false)
  %indvars.iv.next86 = add nuw nsw i64 %indvars.iv85, 1
  %86 = load i32, ptr %71, align 4, !tbaa !48
  %87 = sext i32 %86 to i64
  %88 = icmp slt i64 %indvars.iv.next86, %87
  br i1 %88, label %.lr.ph73, label %._crit_edge74, !llvm.loop !53

._crit_edge74:                                    ; preds = %.lr.ph73, %59
  %indvars.iv.next89 = add nuw nsw i64 %indvars.iv88, 1
  %89 = getelementptr inbounds nuw i8, ptr %.176, i64 96
  %90 = load i32, ptr %19, align 4, !tbaa !38
  %91 = sext i32 %90 to i64
  %92 = icmp slt i64 %indvars.iv.next89, %91
  br i1 %92, label %59, label %._crit_edge79.loopexit, !llvm.loop !54

._crit_edge79.loopexit:                           ; preds = %._crit_edge74
  %93 = icmp sgt i32 %90, 0
  br label %._crit_edge79

._crit_edge79:                                    ; preds = %12, %._crit_edge79.loopexit, %._crit_edge
  %94 = phi i1 [ %93, %._crit_edge79.loopexit ], [ false, %._crit_edge ], [ false, %12 ]
  %.not = icmp eq i32 %1, 0
  br i1 %.not, label %125, label %95

95:                                               ; preds = %._crit_edge79
  br i1 %94, label %.lr.ph83, label %.loopexit

.lr.ph83:                                         ; preds = %95
  %96 = load ptr, ptr %18, align 8, !tbaa !39
  %97 = getelementptr inbounds nuw i8, ptr %16, i64 288
  br label %98

98:                                               ; preds = %.lr.ph83, %98
  %indvars.iv91 = phi i64 [ 0, %.lr.ph83 ], [ %indvars.iv.next92, %98 ]
  %.281 = phi ptr [ %96, %.lr.ph83 ], [ %121, %98 ]
  %99 = load ptr, ptr %13, align 8, !tbaa !31
  %100 = getelementptr inbounds nuw i8, ptr %99, i64 32
  %101 = load ptr, ptr %100, align 8, !tbaa !55
  %102 = getelementptr inbounds nuw i8, ptr %.281, i64 28
  %103 = load i32, ptr %102, align 4, !tbaa !41
  %104 = zext i32 %103 to i64
  %105 = getelementptr inbounds nuw i8, ptr %.281, i64 8
  %106 = load i32, ptr %105, align 8, !tbaa !43
  %107 = sext i32 %106 to i64
  %108 = tail call i64 @jround_up(i64 noundef %104, i64 noundef %107) #5
  %109 = trunc i64 %108 to i32
  %110 = getelementptr inbounds nuw i8, ptr %.281, i64 32
  %111 = load i32, ptr %110, align 8, !tbaa !56
  %112 = zext i32 %111 to i64
  %113 = getelementptr inbounds nuw i8, ptr %.281, i64 12
  %114 = load i32, ptr %113, align 4, !tbaa !48
  %115 = sext i32 %114 to i64
  %116 = tail call i64 @jround_up(i64 noundef %112, i64 noundef %115) #5
  %117 = trunc i64 %116 to i32
  %118 = load i32, ptr %113, align 4, !tbaa !48
  %119 = tail call ptr %101(ptr noundef nonnull %0, i32 noundef 1, i32 noundef 0, i32 noundef %109, i32 noundef %117, i32 noundef %118) #5
  %120 = getelementptr inbounds nuw [10 x ptr], ptr %97, i64 0, i64 %indvars.iv91
  store ptr %119, ptr %120, align 8, !tbaa !57
  %indvars.iv.next92 = add nuw nsw i64 %indvars.iv91, 1
  %121 = getelementptr inbounds nuw i8, ptr %.281, i64 96
  %122 = load i32, ptr %19, align 4, !tbaa !38
  %123 = sext i32 %122 to i64
  %124 = icmp slt i64 %indvars.iv.next92, %123
  br i1 %124, label %98, label %.loopexit, !llvm.loop !59

125:                                              ; preds = %._crit_edge79
  %126 = getelementptr inbounds nuw i8, ptr %16, i64 288
  store ptr null, ptr %126, align 8, !tbaa !57
  br label %.loopexit

.loopexit:                                        ; preds = %98, %95, %125
  ret void
}